(lp0
Voutput/'Homeland' Suffered A Major Intelligence Failure-9IE1mUL1erk_windows.tgz
p1
aVoutput/19 Days And Counting-JxQKYgw9G2k_windows.tgz
p2
aVoutput/A Modest PromPosal For Bernie Sanders-kRsRUIPoW4E_windows.tgz
p3
aVoutput/A Moment For South Carolina-GDFrVwgicsc_windows.tgz
p4
aVoutput/A Special Halloween Warning-mkuyOVckB8s_windows.tgz
p5
aVoutput/A Tahini Bit Of Perspective On Politics-q-cirwvF-SI_windows.tgz
p6
aVoutput/A Tribute To Glenn Frey-0DaJGhJz7S_windows.tgz
p7
aVoutput/All You Can Trump Buffet-F5zjVUZA7rY_windows.tgz
p8
aVoutput/And Now, Some Totally Organic Product Placement, Part 2-ua1jbS-je8I_windows.tgz
p9
aVoutput/Baby Hitler Is No Match For Jeb!-76MlVLbv1zE_windows.tgz
p10
aVoutput/Bernie Can't Be The Only Candidate With An Ice Cream-z3qN-BU1b2M_windows.tgz
p11
aVoutput/Bernie Only Smoked Pot Twice-xnSbHaIG4j4_windows.tgz
p12
aVoutput/Bernie Sanders Promposals-Ks2v3LSd29U_windows.tgz
p13
aVoutput/Bernie Sandwiches Won New Hampshire-c6RVKCqGhCM_windows.tgz
p14
aVoutput/Better Know A Breyer-_uziCZg0_8U_windows.tgz
p15
aVoutput/China Finally Wants To Clear The Air-_w4x2qez138_windows.tgz
p16
aVoutput/Coal Miners Love Trump-hvRU_Y2VWAg_windows.tgz
p17
aVoutput/Department Of Environmental, You\u2019re Fired-1l0V9Sri-Hw_windows.tgz
p18
aVoutput/Did Ben Carson Really Try To Stab A Dude-d1XAyL7PE_s_windows.tgz
p19
aVoutput/Diplomas Of Lies-yN9g0XsDu-E_windows.tgz
p20
aVoutput/Donald Trump Has A Point, Incredibly-Hlblv6_kYpQ_windows.tgz
p21
aVoutput/Donald Trump Puts ISIS On Non-Specific Notice-V2j5DjWKhY_windows.tgz
p22
aVoutput/Donald Trump's Hat Is Leading In The Polls-DuAbBBon7bM_windows.tgz
p23
aVoutput/Everyone Was A Winner In Iowa, Except The Losers-Gyo7sqYBR2M_windows.tgz
p24
aVoutput/Everyone's Angry About Campaign Finance-nWwFbQRPGG_windows.tgz
p25
aVoutput/Fear Not, Karate Cops Are Here-zOanWjRMfLs_windows.tgz
p26
aVoutput/Female Viagra Is Coming-qdT8h9YV7BU_windows.tgz
p27
aVoutput/Finally, Stephen's Tolkien Geekdom Pays Off-k3Sv0O_6no_windows.tgz
p28
aVoutput/Good Cheese News, Bad Cheese News-37-pPk0bJ-o_windows.tgz
p29
aVoutput/Harry Potter & The Cauldron Of Spoilers-bsWzUn4dKsI_windows.tgz
p30
aVoutput/Here Comes Trumpy Boo Boo-fTnlm2cEyQU_windows.tgz
p31
aVoutput/Here Mitt Comes To Save The Day-MZj1bQtRNdk_windows.tgz
p32
aVoutput/Hey, Russia, Keep Your Crab Claws Off Our Internet-i8rYQLGnWHQ_windows.tgz
p33
aVoutput/Hillary And The Wonderful, Remarkable, No Bad, Very Good Week-mqzjg1KifOE_windows.tgz
p34
aVoutput/Hillary Clinton Goes Full '90s Nostalgia-clOwTqLHUmM_windows.tgz
p35
aVoutput/Hillary Clinton's Emoji Outreach-GGwP_-cRWe_windows.tgz
p36
aVoutput/Hillary Clinton\u2019s Biggest Scandal Yet-0RBVCp9Sks_windows.tgz
p37
aVoutput/Hillary Is Planning To Be More Spontaneous-gsyfoTwuOyE_windows.tgz
p38
aVoutput/His Holy Merchandise-9ykwtWzMAlk_windows.tgz
p39
aVoutput/Hooray For The Tubman !-5K-Lyq4kLLQ_windows.tgz
p40
aVoutput/Hooray For The Tubman 0!-5K-Lyq4kLL_windows.tgz
p41
aVoutput/House Of Dodge-Wx2xzqDOiv_windows.tgz
p42
aVoutput/House Of Dodge-Wx2xzqDOivc_windows.tgz
p43
aVoutput/How About That Democratic Debate-AciwXaRfh3k_windows.tgz
p44
aVoutput/Hungry For Power Games - Are You, Are You... Who Are You-b-lECokU2no_windows.tgz
p45
aVoutput/Hungry For Power Games - Carson Eversleep-g2YZdwgTR8M_windows.tgz
p46
aVoutput/Hungry For Power Games - Dyin' Ted-pRb6Ztzo1Aw_windows.tgz
p47
aVoutput/Hungry For Power Games - Farewell Whoever You Were-aiCl60mgp-o_windows.tgz
p48
aVoutput/Hungry For Power Games - Iowa Cornucopia Bloodbath-ruWSO6vYKXQ_windows.tgz
p49
aVoutput/Hungry For Power Games - Jeb Has Fallen-Nnowpe7Scro_windows.tgz
p50
aVoutput/Hungry For Power Games - May The Branch Be Ever In Your Face-wpZFrQP4c2s_windows.tgz
p51
aVoutput/Is This The End Of Jeb!-T9xoVdRgDiU_windows.tgz
p52
aVoutput/It Was A May-To-December Bromance-UHxz4DyidLA_windows.tgz
p53
aVoutput/It's Do Or Die For Ted Cruz... Probably The Latter-_iQCq_Bdlr8_windows.tgz
p54
aVoutput/It's Super Tuesday! Did Hillary Clinton Have A Terrorist Cat-NpCF7GXCtu_windows.tgz
p55
aVoutput/It's Time To Grow Up & Settle Down With Marco Rubio-1tU9XdzQOf0_windows.tgz
p56
aVoutput/It\u2019s Not The End Of The World-mPXkKRy4vo0_windows.tgz
p57
aVoutput/Jeb's Got Turtles & Kim's Got Nukes (Maybe)-uSASN36T2Zw_windows.tgz
p58
aVoutput/John Kasich Explains The Jesus Part Of Passover-p3_EKmdmxg8_windows.tgz
p59
aVoutput/Lady Emojis Tap Against The Glass Ceiling-8nZWWYtDuc_windows.tgz
p60
aVoutput/Late Show Lesser Sponsor Roundup-WuUcpIsf6yU_windows.tgz
p61
aVoutput/Late Show Powerball Tips-1zLWx8brlng_windows.tgz
p62
aVoutput/Late Show Secret Netflix Codes-R8kLIaiU5U_windows.tgz
p63
aVoutput/Let Kanye Be Kanye-aAYEgf2It2c_windows.tgz
p64
aVoutput/Let's Just Remake All Movies With Emoji-PKFzRl2qH8Y_windows.tgz
p65
aVoutput/Life Hacked, Vol. 2-TrZEWhrs2_U_windows.tgz
p66
aVoutput/Life Hacked, Vol. 3-tcXd3YohSFE_windows.tgz
p67
aVoutput/Life Hacked-DNyFx9BjO18_windows.tgz
p68
aVoutput/Lucy In The Sky With Tech Support-No_uN3Uhi4o_windows.tgz
p69
aVoutput/May The Forced Marketing Integration Be With You-_X9ISiLhtHY_windows.tgz
p70
aVoutput/Mr. Pope Goes To Washington-yJQL3Qj7H2E_windows.tgz
p71
aVoutput/Much Ado Nothing About Something-5iqg_vOKnZI_windows.tgz
p72
aVoutput/Nerds vs. Robots-XLv2X0-JwZ0_windows.tgz
p73
aVoutput/Never Bring A Trump To A Carson Fight-Xb5Q_YBDLlc_windows.tgz
p74
aVoutput/New Campbell's Ad Angers A 'Million' Moms-E5zX3kcwtIc_windows.tgz
p75
aVoutput/New Hampshire Diner Woman Just Wants Breakfast-oeujW-xj3Yo_windows.tgz
p76
aVoutput/New York Has Pizza Rat Fever-PeJUqcbool4_windows.tgz
p77
aVoutput/New York Is Ready For The Pope-LqpKTfEQbbQ_windows.tgz
p78
aVoutput/New York Primaried Hard-Lh7FFs2Lqms_windows.tgz
p79
aVoutput/No country For Anyone Not Already Here-lkRpAK3OtqQ_windows.tgz
p80
aVoutput/Nope, Nothing Threatening About Ads That Can See You-60kn1weBK8M_windows.tgz
p81
aVoutput/Now Everyone Can Play Bubble Burst Bernie-aMTGpcASAH_windows.tgz
p82
aVoutput/Ohio Is Going Green-TinwPAkFkno_windows.tgz
p83
aVoutput/Paul Ryan Can\u2019t Fix Everything, John-pSFJh8lTNkU_windows.tgz
p84
aVoutput/Peyton Manning Is The MVP Of Selling Stuff-HGwxBPy73-_windows.tgz
p85
aVoutput/Planet Of The Apps-iB9TxWvq_V0_windows.tgz
p86
aVoutput/Poached Salmon Is Made Out Of... Salmon-V2ND2suEhSE_windows.tgz
p87
aVoutput/Poor Tom Brady-oPFP77fCQJs_windows.tgz
p88
aVoutput/Pope Shot First-RdRVJbgezdU_windows.tgz
p89
aVoutput/President John Kasich-dz2gZDnWl6_windows.tgz
p90
aVoutput/Qdoba Has An Imaginary Customer-sDsgB4nfC9w_windows.tgz
p91
aVoutput/RIP Victoria's Secret Catalogue-425T7Pn3fy_windows.tgz
p92
aVoutput/Race To The Merch House-FxeGVdcH57E_windows.tgz
p93
aVoutput/Reince Priebus' Cry For Help Is Very Specific-aPS1H-GVU6A_windows.tgz
p94
aVoutput/Robot Truckers Are Coming-O4txobgrUYs_windows.tgz
p95
aVoutput/Self-Driving Cars Are Coming Right For Us-9O05htLHWuE_windows.tgz
p96
aVoutput/Side Effects Of Being Presidential Include Drowsiness, Sexism-i9nhny0GuTs_windows.tgz
p97
aVoutput/So What Do We Do-wVO2ewPvdb0_windows.tgz
p98
aVoutput/So, A Congressman Stole The Pope\u2019s Water Glass-N307qjX3hv0_windows.tgz
p99
aVoutput/Some Thoughts On Pretending And Honesty-Brg5ChOTaZM_windows.tgz
p100
aVoutput/Start Getting Used To Saying President Trump-tQGjBMqz7O_windows.tgz
p101
aVoutput/Stephen Asks Donald To Put His Millions Where His Mouth Is-5oa_kGfExu_windows.tgz
p102
aVoutput/Stephen Colbert Gazes Into The InfiNet-0cGdhUSiX_8_windows.tgz
p103
aVoutput/Stephen Colbert Gets All Up In Your Faith-GLWYXCOf4Ac_windows.tgz
p104
aVoutput/Stephen Colbert's Hot Takes - Sesame Street-3e57Ajc0gs4_windows.tgz
p105
aVoutput/Stephen Colbert's Hot Takes-SBzDqJL1ZAU_windows.tgz
p106
aVoutput/Stephen Colbert's Pander Express-V4WBsahU3X_windows.tgz
p107
aVoutput/Stephen Colbert\u2019s Digital Doo-7WMb2ZxS_yk_windows.tgz
p108
aVoutput/Stephen Counsels Paul Ryan To Wait Until He's Ready-Bi8Wcos55Rs_windows.tgz
p109
aVoutput/Stephen Explains 'Star Wars' To China-RwjjTBvOnYo_windows.tgz
p110
aVoutput/Stephen Has Some Tips For Hillary Clinton-qP433ek0Z14_windows.tgz
p111
aVoutput/Stephen Has Some Tips For Potential VP Candidates (Not You, Carly)-Bjp-ocbzefQ_windows.tgz
p112
aVoutput/Stephen Is Concerned About Jeb Bush-o5kAom55cj8_windows.tgz
p113
aVoutput/Stephen Is Heart Sick, Stomach Sick And Just Plain Sick, Too--Kt94MbzLd_windows.tgz
p114
aVoutput/Stephen Is Ready For Some (Not All) Football!-gugqFyij_Cs_windows.tgz
p115
aVoutput/Stephen Is Ready To Go To Mars-gpteVrjBgwI_windows.tgz
p116
aVoutput/Stephen Isn't Ready For \u2018Rogue One\u2019-2B9PUiVL0cc_windows.tgz
p117
aVoutput/Stephen Pays Tribute To Muhammad Ali, With Help From Kareem Abdul-Jabbar-OA4eowAQiGg_windows.tgz
p118
aVoutput/Stephen Puts The Christ Back In C(hrist)offee-ypFGaW4eXj_windows.tgz
p119
aVoutput/Stephen Recaps The Bachelor Finale-ejvWEuMoNV_windows.tgz
p120
aVoutput/Stephen Remembers Morley Safer-2hCg7Vf0D-M_windows.tgz
p121
aVoutput/Stephen Reveals How To Defeat ISIS-TzqLKL-A7BE_windows.tgz
p122
aVoutput/Stephen Totally Watched CNN's GOP Debate-EtOrgQioo5_windows.tgz
p123
aVoutput/Stephen Tries On A Second Skin-ZFvLqV8C5y0_windows.tgz
p124
aVoutput/Stephen and Jon Batiste Pay Tribute To Prince-9cKYm7C2-3M_windows.tgz
p125
aVoutput/Stephen's Got A Fishbone To Pick With Guinness-HQlQA67HQh_windows.tgz
p126
aVoutput/Stephen's Lifestyle Brand Gets Sexy-aMw03Y2ybLo_windows.tgz
p127
aVoutput/Stephen's Tribute To Antonin Scalia-jeJHrIqWsNw_windows.tgz
p128
aVoutput/Stephen's Tribute To David Letterman-pp85W9ddN88_windows.tgz
p129
aVoutput/Stephen's Wish List for Hillary Clinton-qUBWEMEPxDw_windows.tgz
p130
aVoutput/Stephen\u2019s Breakfast Prophecies Are Coming True-LqVgVAnAxPs_windows.tgz
p131
aVoutput/Super Tuesday Part Three Proved They Need To Retire The Franchise-Afb-nWeKak_windows.tgz
p132
aVoutput/Ted Cruz Announces His Losing Mate-nPATU4Bz9fw_windows.tgz
p133
aVoutput/Ted Cruz Could Go Further To The Right-XXom9FLygzQ_windows.tgz
p134
aVoutput/Thanks A Lot, Helen, Sally & Jeff-8Zu6CGJjrrQ_windows.tgz
p135
aVoutput/Thanksgiving Is The Most Politically Divisive Meal Of The Year-0q_4p6ijEtc_windows.tgz
p136
aVoutput/The 2016 Race Learns What's Below Rock Bottom-70iDoDAAfyQ_windows.tgz
p137
aVoutput/The 4th GOP Debate Was A Thing That Happened-LGq1a4B3r-_windows.tgz
p138
aVoutput/The All-Seeing NostraDonald-79NNnK0kZoc_windows.tgz
p139
aVoutput/The Biggest Loser Of The CNBC Debate Was Everyone-gDUFvLWl-Oc_windows.tgz
p140
aVoutput/The Colbert Emoji Is Good For Almost Every Occasion-CfZE56E0Ut_windows.tgz
p141
aVoutput/The Curse Of The Billy Goat Won\u2019t Stop The Cubs-pGIYtCWzxAw_windows.tgz
p142
aVoutput/The GOP Candidates Demand Equal Time-YNXxEYGB7yY_windows.tgz
p143
aVoutput/The GOP Candidates Have Gone Full Reagan-M-yWgpxwBKk_windows.tgz
p144
aVoutput/The Great Of The Union-gSNKPj6fZU_windows.tgz
p145
aVoutput/The Hungry For Power Games - Caligula's Fallen-a2xVrQg1E8E_windows.tgz
p146
aVoutput/The Hungry For Power Games - Marco Says Ru-bye-o-1AWywH4Oxc_windows.tgz
p147
aVoutput/The Hungry For Power Games - Walkingjay-F8ed_BVDgw_windows.tgz
p148
aVoutput/The Hungry For Power Games-svMxwRj3LdY_windows.tgz
p149
aVoutput/The Meatocalypse Has Arrived-66G__mozVz_windows.tgz
p150
aVoutput/The Morning After Super Tuesday-lojb-a5VZK0_windows.tgz
p151
aVoutput/The Most Mature Late Show Clip Ever-f9WwC8Olc6A_windows.tgz
p152
aVoutput/The Next Debate Will Feature Hillary, Bernie and Mumford & Sons (sp)-pFUXcA1fp6g_windows.tgz
p153
aVoutput/The Oregon Fail-ktr9MYFdad_windows.tgz
p154
aVoutput/The Oregon Militia Needs More Stuff-izP3RnrNJx4_windows.tgz
p155
aVoutput/The Original Material Girl Is Back-_LPR7DktumA_windows.tgz
p156
aVoutput/The Pope Is Here!-5yxCwuKSnM_windows.tgz
p157
aVoutput/The Road To The White House Has Gotten Lumpy-3m50EE8jeZA_windows.tgz
p158
aVoutput/The Second Republican Debate JUST Ended-qyZ5qgIABUc_windows.tgz
p159
aVoutput/The Vatican Isn't Feeling The Force-6kD4xfJyuR0_windows.tgz
p160
aVoutput/There Are Worse Things Than Starbucks Spelling Your Name Right-muBZk76UuRk_windows.tgz
p161
aVoutput/There Is A New Conspiracy Afoot\u2026 And Apaw-e390alJS5y_windows.tgz
p162
aVoutput/To Know Ted Cruz Is To Wish You Didn't-euCGw71nlgY_windows.tgz
p163
aVoutput/Trump And Bush Book It Out--tf9149OHeQ_windows.tgz
p164
aVoutput/Trump Courts The Bible And Ghost Vote-0Oo0RcL4PJw_windows.tgz
p165
aVoutput/Trump Failed The Easiest Test--i3E0b_wU18_windows.tgz
p166
aVoutput/Trump Goes Full Lunchroom Bully On Kasich-ER4b2jcuwBg_windows.tgz
p167
aVoutput/Trump Only Knows What's On The Internet-jp2ggZ7s4O_windows.tgz
p168
aVoutput/Trump Will Be Ready On Day One-Ish-VvzoaUmyUFg_windows.tgz
p169
aVoutput/Trump, Pile Of Meat 2016-_q33sHC_tY_windows.tgz
p170
aVoutput/Unseen Mysteries Of The Hidden Secrets-SBjiVCC1kdg_windows.tgz
p171
aVoutput/Vaping Is So Hot Right Now-PMtGca_7leM_windows.tgz
p172
aVoutput/Waiting For Joe-dot-vBkwVvlB0cI_windows.tgz
p173
aVoutput/Warning - This Footage May Disturb All Humans-Znr_a2V2d1c_windows.tgz
p174
aVoutput/We Have To Help Kanye-SHSgB6QO1Yo_windows.tgz
p175
aVoutput/We May Have To Get Used To The Idea Of President Trump-AxfbcSqwzRQ_windows.tgz
p176
aVoutput/We Need More Female Villains-wgW2KLJayxI_windows.tgz
p177
aVoutput/We Stand With The People Of France-Rjb7u_t-GjI_windows.tgz
p178
aVoutput/Welcome To The First Church Of Cannabis-jb1jsmfOc64_windows.tgz
p179
aVoutput/What Does The Jeb Say-oK3WWu7Xztk_windows.tgz
p180
aVoutput/What Is Art Follow-Up - What Is Porn-YkJS0IzZRE_windows.tgz
p181
aVoutput/What's In Hillary's Purse-OzzJZoaAefo_windows.tgz
p182
aVoutput/Whole Foods Apologies-BP4tcknH5n_windows.tgz
p183
aVoutput/Whoo! The World Will Stay Hospitable For Human Life!-QlB-GB0fEI_windows.tgz
p184
aVoutput/Would You Rather - GOP Edition-nmWqwKkaGjw_windows.tgz
p185
aVoutput/You Won't Believe What They're Doing To Your Favorite Sport-62oHw3RZo30_windows.tgz
p186
aVoutput/Zip-A-Dee-Doo-BYE-9oIuuvHdWzA_windows.tgz
p187
a.